target datalayout = "e-m:e-p270:32:32-p271:32:32-p272:64:64-i64:64-i128:128-f80:128-n8:16:32:64-S128"
target triple = "x86_64-pc-linux-gnu"

@.str.3 = private unnamed_addr constant [2 x i8] c"\0A\00", align 1

; Function Attrs: nounwind uwtable
define void @If_Dec5PerformTest() #0 {
  %1 = alloca i64, align 8
  %2 = alloca i64, align 8
  %3 = alloca i64, align 8
  call void @llvm.lifetime.start.p0(i64 8, ptr %1) #7
  call void @llvm.lifetime.start.p0(i64 8, ptr %2) #7
  call void @llvm.lifetime.start.p0(i64 8, ptr %3) #7
  store i64 -5696014491461635841, ptr %2, align 8, !tbaa !3
  call void @Kit_DsdPrintFromTruth(ptr noundef %2, i32 noundef 5)
  %4 = call i32 (ptr, ...) @printf(ptr noundef @.str.3)
  %5 = load i64, ptr %2, align 8, !tbaa !3
  %6 = call i64 @If_Dec5Perform(i64 noundef %5, i32 noundef 1)
  store i64 %6, ptr %1, align 8, !tbaa !3
  %7 = load i64, ptr %1, align 8, !tbaa !3
  %8 = call i64 @If_Dec6Truth(i64 noundef %7)
  store i64 %8, ptr %3, align 8, !tbaa !3
  call void @llvm.lifetime.end.p0(i64 8, ptr %3) #7
  call void @llvm.lifetime.end.p0(i64 8, ptr %2) #7
  call void @llvm.lifetime.end.p0(i64 8, ptr %1) #7
  ret void
}