; Function Attrs: nounwind uwtable
define void @If_Dec5PerformTest() local_unnamed_addr #0 {
  %1 = alloca i64, align 8
  call void @llvm.lifetime.start.p0(i64 8, ptr nonnull %1) #14
  store i64 -5696014491461635841, ptr %1, align 8, !tbaa !10
  call void @Kit_DsdPrintFromTruth(ptr noundef nonnull %1, i32 noundef 5) #14
  %putchar = call i32 @putchar(i32 10)
  %2 = load i64, ptr %1, align 8, !tbaa !10
  %3 = call i64 @If_Dec5Perform(i64 noundef %2, i32 noundef 1)
  %4 = call i64 @If_Dec6Truth(i64 noundef %3)
  call void @llvm.lifetime.end.p0(i64 8, ptr nonnull %1) #14
  ret void
}